target datalayout = "e-m:e-p270:32:32-p271:32:32-p272:64:64-i64:64-i128:128-f80:128-n8:16:32:64-S128"
target triple = "x86_64-pc-linux-gnu"

%struct.pmix_list_t = type { %struct.pmix_object_t, %struct.pmix_list_item_t, i64 }
%struct.pmix_object_t = type { %union.pthread_mutex_t, ptr, i32, %struct.pmix_tma }
%union.pthread_mutex_t = type { %struct.__pthread_mutex_s }
%struct.__pthread_mutex_s = type { i32, i32, i32, i32, i32, i16, i16, %struct.__pthread_internal_list }
%struct.__pthread_internal_list = type { ptr, ptr }
%struct.pmix_tma = type { ptr, ptr, ptr, ptr, ptr, ptr, ptr, ptr }
%struct.pmix_list_item_t = type { %struct.pmix_object_t, ptr, ptr, i32 }
%struct.pmix_attribute_trk_t = type { %struct.pmix_list_item_t, ptr, ptr }

@client_attrs = internal global %struct.pmix_list_t zeroinitializer, align 8
@server_attrs = internal global %struct.pmix_list_t zeroinitializer, align 8
@host_attrs = internal global %struct.pmix_list_t zeroinitializer, align 8
@tool_attrs = internal global %struct.pmix_list_t zeroinitializer, align 8
@.str.5 = private unnamed_addr constant [16 x i8] c"pmix.client.fns\00", align 1
@.str.6 = private unnamed_addr constant [14 x i8] c"pmix.srvr.fns\00", align 1
@.str.7 = private unnamed_addr constant [14 x i8] c"pmix.tool.fns\00", align 1
@.str.8 = private unnamed_addr constant [14 x i8] c"pmix.host.fns\00", align 1
@.str.13 = private unnamed_addr constant [29 x i8] c"CLIENT SUPPORTED FUNCTIONS: \00", align 1
@.str.14 = private unnamed_addr constant [29 x i8] c"SERVER SUPPORTED FUNCTIONS: \00", align 1
@.str.15 = private unnamed_addr constant [27 x i8] c"HOST SUPPORTED FUNCTIONS: \00", align 1
@.str.16 = private unnamed_addr constant [27 x i8] c"TOOL SUPPORTED FUNCTIONS: \00", align 1

; Function Attrs: nounwind uwtable
define ptr @pmix_attributes_print_functions(ptr noundef %0) #0 {
  %2 = alloca ptr, align 8
  %3 = alloca ptr, align 8
  %4 = alloca ptr, align 8
  %5 = alloca ptr, align 8
  %6 = alloca ptr, align 8
  %7 = alloca ptr, align 8
  %8 = alloca ptr, align 8
  %9 = alloca ptr, align 8
  %10 = alloca ptr, align 8
  %11 = alloca i32, align 4
  store ptr %0, ptr %3, align 8, !tbaa !68
  call void @llvm.lifetime.start.p0(i64 8, ptr %4) #13
  store ptr @.str.13, ptr %4, align 8, !tbaa !68
  call void @llvm.lifetime.start.p0(i64 8, ptr %5) #13
  store ptr @.str.14, ptr %5, align 8, !tbaa !68
  call void @llvm.lifetime.start.p0(i64 8, ptr %6) #13
  store ptr @.str.15, ptr %6, align 8, !tbaa !68
  call void @llvm.lifetime.start.p0(i64 8, ptr %7) #13
  store ptr @.str.16, ptr %7, align 8, !tbaa !68
  call void @llvm.lifetime.start.p0(i64 8, ptr %8) #13
  store ptr null, ptr %8, align 8, !tbaa !69
  call void @llvm.lifetime.start.p0(i64 8, ptr %9) #13
  call void @llvm.lifetime.start.p0(i64 8, ptr %10) #13
  %12 = load ptr, ptr %3, align 8, !tbaa !68
  %13 = call i32 @strcmp(ptr noundef %12, ptr noundef @.str.5) #15
  %14 = icmp eq i32 0, %13
  br i1 %14, label %15, label %18

15:                                               ; preds = %1
  %16 = load ptr, ptr %4, align 8, !tbaa !68
  %17 = call i32 @PMIx_Argv_append_nosize(ptr noundef %8, ptr noundef %16)
  store ptr @client_attrs, ptr %9, align 8, !tbaa !77
  br label %43

18:                                               ; preds = %1
  %19 = load ptr, ptr %3, align 8, !tbaa !68
  %20 = call i32 @strcmp(ptr noundef %19, ptr noundef @.str.6) #15
  %21 = icmp eq i32 0, %20
  br i1 %21, label %22, label %25

22:                                               ; preds = %18
  %23 = load ptr, ptr %5, align 8, !tbaa !68
  %24 = call i32 @PMIx_Argv_append_nosize(ptr noundef %8, ptr noundef %23)
  store ptr @server_attrs, ptr %9, align 8, !tbaa !77
  br label %42

25:                                               ; preds = %18
  %26 = load ptr, ptr %3, align 8, !tbaa !68
  %27 = call i32 @strcmp(ptr noundef %26, ptr noundef @.str.8) #15
  %28 = icmp eq i32 0, %27
  br i1 %28, label %29, label %32

29:                                               ; preds = %25
  %30 = load ptr, ptr %6, align 8, !tbaa !68
  %31 = call i32 @PMIx_Argv_append_nosize(ptr noundef %8, ptr noundef %30)
  store ptr @host_attrs, ptr %9, align 8, !tbaa !77
  br label %41

32:                                               ; preds = %25
  %33 = load ptr, ptr %3, align 8, !tbaa !68
  %34 = call i32 @strcmp(ptr noundef %33, ptr noundef @.str.7) #15
  %35 = icmp eq i32 0, %34
  br i1 %35, label %36, label %39

36:                                               ; preds = %32
  %37 = load ptr, ptr %7, align 8, !tbaa !68
  %38 = call i32 @PMIx_Argv_append_nosize(ptr noundef %8, ptr noundef %37)
  store ptr @tool_attrs, ptr %9, align 8, !tbaa !77
  br label %40

39:                                               ; preds = %32
  store ptr null, ptr %2, align 8
  store i32 1, ptr %11, align 4
  br label %64

40:                                               ; preds = %36
  br label %41

41:                                               ; preds = %40, %29
  br label %42

42:                                               ; preds = %41, %22
  br label %43

43:                                               ; preds = %42, %15
  %44 = load ptr, ptr %9, align 8, !tbaa !77
  %45 = getelementptr inbounds nuw %struct.pmix_list_t, ptr %44, i32 0, i32 1
  %46 = getelementptr inbounds nuw %struct.pmix_list_item_t, ptr %45, i32 0, i32 1
  %47 = load ptr, ptr %46, align 8, !tbaa !79
  store ptr %47, ptr %10, align 8, !tbaa !42
  br label %48

48:                                               ; preds = %58, %43
  %49 = load ptr, ptr %10, align 8, !tbaa !42
  %50 = load ptr, ptr %9, align 8, !tbaa !77
  %51 = getelementptr inbounds nuw %struct.pmix_list_t, ptr %50, i32 0, i32 1
  %52 = icmp ne ptr %49, %51
  br i1 %52, label %53, label %62

53:                                               ; preds = %48
  %54 = load ptr, ptr %10, align 8, !tbaa !42
  %55 = getelementptr inbounds nuw %struct.pmix_attribute_trk_t, ptr %54, i32 0, i32 1
  %56 = load ptr, ptr %55, align 8, !tbaa !80
  %57 = call i32 @PMIx_Argv_append_nosize(ptr noundef %8, ptr noundef %56)
  br label %58

58:                                               ; preds = %53
  %59 = load ptr, ptr %10, align 8, !tbaa !42
  %60 = getelementptr inbounds nuw %struct.pmix_list_item_t, ptr %59, i32 0, i32 1
  %61 = load ptr, ptr %60, align 8, !tbaa !82
  store ptr %61, ptr %10, align 8, !tbaa !42
  br label %48, !llvm.loop !203

62:                                               ; preds = %48
  %63 = load ptr, ptr %8, align 8, !tbaa !69
  store ptr %63, ptr %2, align 8
  store i32 1, ptr %11, align 4
  br label %64

64:                                               ; preds = %62, %39
  call void @llvm.lifetime.end.p0(i64 8, ptr %10) #13
  call void @llvm.lifetime.end.p0(i64 8, ptr %9) #13
  call void @llvm.lifetime.end.p0(i64 8, ptr %8) #13
  call void @llvm.lifetime.end.p0(i64 8, ptr %7) #13
  call void @llvm.lifetime.end.p0(i64 8, ptr %6) #13
  call void @llvm.lifetime.end.p0(i64 8, ptr %5) #13
  call void @llvm.lifetime.end.p0(i64 8, ptr %4) #13
  %65 = load ptr, ptr %2, align 8
  ret ptr %65
}