; Function Attrs: nounwind uwtable
define ptr @pmix_attributes_print_functions(ptr noundef readonly captures(none) %0) local_unnamed_addr #0 {
  %2 = alloca ptr, align 8
  call void @llvm.lifetime.start.p0(i64 8, ptr nonnull %2) #18
  store ptr null, ptr %2, align 8, !tbaa !164
  %3 = tail call i32 @strcmp(ptr noundef nonnull dereferenceable(1) %0, ptr noundef nonnull dereferenceable(16) @.str.5) #20
  %4 = icmp eq i32 %3, 0
  br i1 %4, label %14, label %5

5:                                                ; preds = %1
  %6 = tail call i32 @strcmp(ptr noundef nonnull dereferenceable(1) %0, ptr noundef nonnull dereferenceable(14) @.str.6) #20
  %7 = icmp eq i32 %6, 0
  br i1 %7, label %14, label %8

8:                                                ; preds = %5
  %9 = tail call i32 @strcmp(ptr noundef nonnull dereferenceable(1) %0, ptr noundef nonnull dereferenceable(14) @.str.8) #20
  %10 = icmp eq i32 %9, 0
  br i1 %10, label %14, label %11

11:                                               ; preds = %8
  %12 = tail call i32 @strcmp(ptr noundef nonnull dereferenceable(1) %0, ptr noundef nonnull dereferenceable(14) @.str.7) #20
  %13 = icmp eq i32 %12, 0
  br i1 %13, label %14, label %23

14:                                               ; preds = %11, %8, %5, %1
  %.str.14.sink = phi ptr [ @.str.13, %1 ], [ @.str.14, %5 ], [ @.str.15, %8 ], [ @.str.16, %11 ]
  %.014 = phi ptr [ @client_attrs, %1 ], [ @server_attrs, %5 ], [ @host_attrs, %8 ], [ @tool_attrs, %11 ]
  %15 = call i32 @PMIx_Argv_append_nosize(ptr noundef nonnull %2, ptr noundef nonnull %.str.14.sink) #18
  %16 = getelementptr inbounds nuw i8, ptr %.014, i64 120
  %17 = getelementptr inbounds nuw i8, ptr %.014, i64 240
  %.016 = load ptr, ptr %17, align 8, !tbaa !58
  %.not17 = icmp eq ptr %.016, %16
  br i1 %.not17, label %._crit_edge, label %.lr.ph

.lr.ph:                                           ; preds = %14, %.lr.ph
  %.018 = phi ptr [ %.0, %.lr.ph ], [ %.016, %14 ]
  %18 = getelementptr inbounds nuw i8, ptr %.018, i64 144
  %19 = load ptr, ptr %18, align 8, !tbaa !60
  %20 = call i32 @PMIx_Argv_append_nosize(ptr noundef nonnull %2, ptr noundef %19) #18
  %21 = getelementptr inbounds nuw i8, ptr %.018, i64 120
  %.0 = load ptr, ptr %21, align 8, !tbaa !58
  %.not = icmp eq ptr %.0, %16
  br i1 %.not, label %._crit_edge, label %.lr.ph, !llvm.loop !174

._crit_edge:                                      ; preds = %.lr.ph, %14
  %22 = load ptr, ptr %2, align 8, !tbaa !164
  br label %23

23:                                               ; preds = %11, %._crit_edge
  %.015 = phi ptr [ %22, %._crit_edge ], [ null, %11 ]
  call void @llvm.lifetime.end.p0(i64 8, ptr nonnull %2) #18
  ret ptr %.015
}